; Function Attrs: nounwind uwtable
define ptr @l_Lean_Compiler_LCNF_withPhase___rarg(i8 noundef zeroext %0, ptr noundef %1, ptr noundef %2, ptr noundef %3, ptr noundef %4, ptr noundef %5, ptr noundef %6) local_unnamed_addr #2 {
  %.val = load i32, ptr %2, align 4, !tbaa !8
  %8 = icmp eq i32 %.val, 1
  br i1 %8, label %9, label %11

9:                                                ; preds = %7
  %10 = getelementptr inbounds nuw i8, ptr %2, i64 16
  store i8 %0, ptr %10, align 1, !tbaa !17
  br label %37

11:                                               ; preds = %7
  %12 = getelementptr inbounds nuw i8, ptr %2, i64 8
  %13 = load ptr, ptr %12, align 8, !tbaa !4
  %14 = ptrtoint ptr %13 to i64
  %15 = and i64 %14, 1
  %.not = icmp eq i64 %15, 0
  br i1 %.not, label %16, label %lean_inc.exit

16:                                               ; preds = %11
  %.val.i = load i32, ptr %13, align 4, !tbaa !8
  %17 = icmp sgt i32 %.val.i, 0
  br i1 %17, label %18, label %20, !prof !11

18:                                               ; preds = %16
  %19 = add nuw i32 %.val.i, 1
  store i32 %19, ptr %13, align 4, !tbaa !8
  br label %lean_inc.exit

20:                                               ; preds = %16
  %.not.i25 = icmp eq i32 %.val.i, 0
  br i1 %.not.i25, label %lean_inc.exit, label %21

21:                                               ; preds = %20
  tail call void @lean_inc_ref_cold(ptr noundef nonnull %13) #6
  br label %lean_inc.exit

lean_inc.exit:                                    ; preds = %21, %20, %18, %11
  %22 = ptrtoint ptr %2 to i64
  %23 = and i64 %22, 1
  %.not26 = icmp eq i64 %23, 0
  br i1 %.not26, label %24, label %lean_dec.exit

24:                                               ; preds = %lean_inc.exit
  %25 = load i32, ptr %2, align 4, !tbaa !8
  %26 = icmp sgt i32 %25, 1
  br i1 %26, label %27, label %29, !prof !11

27:                                               ; preds = %24
  %28 = add nsw i32 %25, -1
  store i32 %28, ptr %2, align 4, !tbaa !8
  br label %lean_dec.exit

29:                                               ; preds = %24
  %.not.i = icmp eq i32 %25, 0
  br i1 %.not.i, label %lean_dec.exit, label %30

30:                                               ; preds = %29
  tail call void @lean_dec_ref_cold(ptr noundef nonnull %2) #6
  br label %lean_dec.exit

lean_dec.exit:                                    ; preds = %30, %29, %27, %lean_inc.exit
  tail call void @lean_inc_heartbeat() #6
  %31 = tail call noalias ptr @mi_malloc_small(i64 noundef 24) #6
  %32 = icmp eq ptr %31, null
  br i1 %32, label %33, label %lean_alloc_ctor.exit

33:                                               ; preds = %lean_dec.exit
  tail call void @lean_internal_panic_out_of_memory() #7
  unreachable

lean_alloc_ctor.exit:                             ; preds = %lean_dec.exit
  %34 = getelementptr inbounds nuw i8, ptr %31, i64 4
  %35 = getelementptr inbounds nuw i8, ptr %31, i64 16
  store i64 0, ptr %35, align 8, !tbaa !15
  store i32 1, ptr %31, align 4, !tbaa !8
  store i32 65560, ptr %34, align 4
  %36 = getelementptr inbounds nuw i8, ptr %31, i64 8
  store ptr %13, ptr %36, align 8, !tbaa !4
  store i8 %0, ptr %35, align 1, !tbaa !17
  br label %37

37:                                               ; preds = %lean_alloc_ctor.exit, %9
  %.sink = phi ptr [ %31, %lean_alloc_ctor.exit ], [ %2, %9 ]
  %38 = tail call ptr @lean_apply_5(ptr noundef %1, ptr noundef nonnull %.sink, ptr noundef %3, ptr noundef %4, ptr noundef %5, ptr noundef %6) #6
  ret ptr %38
}